target datalayout = "e-m:e-p270:32:32-p271:32:32-p272:64:64-i64:64-i128:128-f80:128-n8:16:32:64-S128"
target triple = "x86_64-pc-linux-gnu"

%struct.rd_struct_s = type { i32, i16, i8, i8, ptr }
%struct.inode = type { ptr, ptr, ptr, i16, i16, %union.inode_ops_u, i16, ptr, [1 x i8] }
%union.inode_ops_u = type { ptr }
%struct.geometry = type { i8, i8, i8, i32, i16, [33 x i8] }

; Function Attrs: nounwind uwtable
define internal i32 @rd_geometry(ptr noundef %0, ptr noundef %1) #0 {
  %3 = alloca i32, align 4
  %4 = alloca ptr, align 8
  %5 = alloca ptr, align 8
  %6 = alloca ptr, align 8
  store ptr %0, ptr %4, align 8
  store ptr %1, ptr %5, align 8
  br label %7

7:                                                ; preds = %2
  br label %8

8:                                                ; preds = %7
  %9 = load ptr, ptr %5, align 8
  %10 = icmp ne ptr %9, null
  br i1 %10, label %11, label %43

11:                                               ; preds = %8
  %12 = load ptr, ptr %4, align 8
  %13 = getelementptr inbounds %struct.inode, ptr %12, i32 0, i32 7
  %14 = load ptr, ptr %13, align 8
  store ptr %14, ptr %6, align 8
  %15 = load ptr, ptr %5, align 8
  call void @llvm.memset.p0.i64(ptr align 4 %15, i8 0, i64 44, i1 false)
  %16 = load ptr, ptr %5, align 8
  %17 = getelementptr inbounds %struct.geometry, ptr %16, i32 0, i32 0
  store i8 1, ptr %17, align 4
  %18 = load ptr, ptr %5, align 8
  %19 = getelementptr inbounds %struct.geometry, ptr %18, i32 0, i32 1
  store i8 0, ptr %19, align 1
  %20 = load ptr, ptr %6, align 8
  %21 = getelementptr inbounds %struct.rd_struct_s, ptr %20, i32 0, i32 3
  %22 = load i8, ptr %21, align 1
  %23 = zext i8 %22 to i32
  %24 = and i32 %23, 1
  %25 = icmp ne i32 %24, 0
  %26 = load ptr, ptr %5, align 8
  %27 = getelementptr inbounds %struct.geometry, ptr %26, i32 0, i32 2
  %28 = zext i1 %25 to i8
  store i8 %28, ptr %27, align 2
  %29 = load ptr, ptr %6, align 8
  %30 = getelementptr inbounds %struct.rd_struct_s, ptr %29, i32 0, i32 0
  %31 = load i32, ptr %30, align 8
  %32 = load ptr, ptr %5, align 8
  %33 = getelementptr inbounds %struct.geometry, ptr %32, i32 0, i32 3
  store i32 %31, ptr %33, align 4
  %34 = load ptr, ptr %6, align 8
  %35 = getelementptr inbounds %struct.rd_struct_s, ptr %34, i32 0, i32 1
  %36 = load i16, ptr %35, align 4
  %37 = load ptr, ptr %5, align 8
  %38 = getelementptr inbounds %struct.geometry, ptr %37, i32 0, i32 4
  store i16 %36, ptr %38, align 4
  br label %39

39:                                               ; preds = %11
  br label %40

40:                                               ; preds = %39
  br label %41

41:                                               ; preds = %40
  br label %42

42:                                               ; preds = %41
  store i32 0, ptr %3, align 4
  br label %44

43:                                               ; preds = %8
  store i32 -22, ptr %3, align 4
  br label %44

44:                                               ; preds = %43, %42
  %45 = load i32, ptr %3, align 4
  ret i32 %45
}