; Function Attrs: mustprogress nofree norecurse nosync nounwind willreturn memory(read, argmem: readwrite, inaccessiblemem: none) uwtable
define internal range(i32 -22, 1) i32 @rd_geometry(ptr noundef readonly captures(none) %0, ptr noundef writeonly %1) #7 {
  %.not = icmp eq ptr %1, null
  br i1 %.not, label %15, label %3

3:                                                ; preds = %2
  %4 = getelementptr inbounds nuw i8, ptr %0, i64 48
  %5 = load ptr, ptr %4, align 8
  tail call void @llvm.memset.p0.i64(ptr noundef nonnull align 4 dereferenceable(44) %1, i8 0, i64 44, i1 false)
  store i8 1, ptr %1, align 4
  %6 = getelementptr inbounds nuw i8, ptr %5, i64 7
  %7 = load i8, ptr %6, align 1
  %8 = and i8 %7, 1
  %9 = getelementptr inbounds nuw i8, ptr %1, i64 2
  store i8 %8, ptr %9, align 2
  %10 = load i32, ptr %5, align 8
  %11 = getelementptr inbounds nuw i8, ptr %1, i64 4
  store i32 %10, ptr %11, align 4
  %12 = getelementptr inbounds nuw i8, ptr %5, i64 4
  %13 = load i16, ptr %12, align 4
  %14 = getelementptr inbounds nuw i8, ptr %1, i64 8
  store i16 %13, ptr %14, align 4
  br label %15

15:                                               ; preds = %2, %3
  %.0 = phi i32 [ 0, %3 ], [ -22, %2 ]
  ret i32 %.0
}